target datalayout = "e-m:e-p270:32:32-p271:32:32-p272:64:64-i64:64-i128:128-f80:128-n8:16:32:64-S128"
target triple = "x86_64-pc-linux-gnu"

%struct.lookup = type { ptr, i32 }

@noise = internal global i8 0, align 1
@.str.138 = private unnamed_addr constant [5 x i8] c"last\00", align 1
@.str.139 = private unnamed_addr constant [43 x i8] c"\22%s\22 is undocumented; use \22last%s\22 instead\00", align 1
@.str.140 = private unnamed_addr constant [35 x i8] c"\22%s\22 is ambiguous in pre-2017c zic\00", align 1

; Function Attrs: nounwind uwtable
define internal signext i8 @lowerit(i8 noundef signext %0) #0 {
  %2 = alloca i8, align 1
  %3 = alloca i8, align 1
  store i8 %0, ptr %3, align 1
  %4 = load i8, ptr %3, align 1
  %5 = sext i8 %4 to i32
  switch i32 %5, label %6 [
    i32 65, label %8
    i32 66, label %9
    i32 67, label %10
    i32 68, label %11
    i32 69, label %12
    i32 70, label %13
    i32 71, label %14
    i32 72, label %15
    i32 73, label %16
    i32 74, label %17
    i32 75, label %18
    i32 76, label %19
    i32 77, label %20
    i32 78, label %21
    i32 79, label %22
    i32 80, label %23
    i32 81, label %24
    i32 82, label %25
    i32 83, label %26
    i32 84, label %27
    i32 85, label %28
    i32 86, label %29
    i32 87, label %30
    i32 88, label %31
    i32 89, label %32
    i32 90, label %33
  ]

6:                                                ; preds = %1
  %7 = load i8, ptr %3, align 1
  store i8 %7, ptr %2, align 1
  br label %34

8:                                                ; preds = %1
  store i8 97, ptr %2, align 1
  br label %34

9:                                                ; preds = %1
  store i8 98, ptr %2, align 1
  br label %34

10:                                               ; preds = %1
  store i8 99, ptr %2, align 1
  br label %34

11:                                               ; preds = %1
  store i8 100, ptr %2, align 1
  br label %34

12:                                               ; preds = %1
  store i8 101, ptr %2, align 1
  br label %34

13:                                               ; preds = %1
  store i8 102, ptr %2, align 1
  br label %34

14:                                               ; preds = %1
  store i8 103, ptr %2, align 1
  br label %34

15:                                               ; preds = %1
  store i8 104, ptr %2, align 1
  br label %34

16:                                               ; preds = %1
  store i8 105, ptr %2, align 1
  br label %34

17:                                               ; preds = %1
  store i8 106, ptr %2, align 1
  br label %34

18:                                               ; preds = %1
  store i8 107, ptr %2, align 1
  br label %34

19:                                               ; preds = %1
  store i8 108, ptr %2, align 1
  br label %34

20:                                               ; preds = %1
  store i8 109, ptr %2, align 1
  br label %34

21:                                               ; preds = %1
  store i8 110, ptr %2, align 1
  br label %34

22:                                               ; preds = %1
  store i8 111, ptr %2, align 1
  br label %34

23:                                               ; preds = %1
  store i8 112, ptr %2, align 1
  br label %34

24:                                               ; preds = %1
  store i8 113, ptr %2, align 1
  br label %34

25:                                               ; preds = %1
  store i8 114, ptr %2, align 1
  br label %34

26:                                               ; preds = %1
  store i8 115, ptr %2, align 1
  br label %34

27:                                               ; preds = %1
  store i8 116, ptr %2, align 1
  br label %34

28:                                               ; preds = %1
  store i8 117, ptr %2, align 1
  br label %34

29:                                               ; preds = %1
  store i8 118, ptr %2, align 1
  br label %34

30:                                               ; preds = %1
  store i8 119, ptr %2, align 1
  br label %34

31:                                               ; preds = %1
  store i8 120, ptr %2, align 1
  br label %34

32:                                               ; preds = %1
  store i8 121, ptr %2, align 1
  br label %34

33:                                               ; preds = %1
  store i8 122, ptr %2, align 1
  br label %34

34:                                               ; preds = %33, %32, %31, %30, %29, %28, %27, %26, %25, %24, %23, %22, %21, %20, %19, %18, %17, %16, %15, %14, %13, %12, %11, %10, %9, %8, %6
  %35 = load i8, ptr %2, align 1
  ret i8 %35
}

; Function Attrs: nounwind uwtable
define internal zeroext i1 @itsabbr(ptr noundef %0, ptr noundef %1) #0 {
  %3 = alloca i1, align 1
  %4 = alloca ptr, align 8
  %5 = alloca ptr, align 8
  store ptr %0, ptr %4, align 8
  store ptr %1, ptr %5, align 8
  %6 = load ptr, ptr %4, align 8
  %7 = load i8, ptr %6, align 1
  %8 = call signext i8 @lowerit(i8 noundef signext %7)
  %9 = sext i8 %8 to i32
  %10 = load ptr, ptr %5, align 8
  %11 = load i8, ptr %10, align 1
  %12 = call signext i8 @lowerit(i8 noundef signext %11)
  %13 = sext i8 %12 to i32
  %14 = icmp ne i32 %9, %13
  br i1 %14, label %15, label %16

15:                                               ; preds = %2
  store i1 false, ptr %3, align 1
  br label %46

16:                                               ; preds = %2
  %17 = load ptr, ptr %5, align 8
  %18 = getelementptr inbounds nuw i8, ptr %17, i32 1
  store ptr %18, ptr %5, align 8
  br label %19

19:                                               ; preds = %44, %16
  %20 = load ptr, ptr %4, align 8
  %21 = getelementptr inbounds nuw i8, ptr %20, i32 1
  store ptr %21, ptr %4, align 8
  %22 = load i8, ptr %21, align 1
  %23 = sext i8 %22 to i32
  %24 = icmp ne i32 %23, 0
  br i1 %24, label %25, label %45

25:                                               ; preds = %19
  br label %26

26:                                               ; preds = %33, %25
  %27 = load ptr, ptr %5, align 8
  %28 = load i8, ptr %27, align 1
  %29 = sext i8 %28 to i32
  %30 = icmp eq i32 %29, 0
  br i1 %30, label %31, label %32

31:                                               ; preds = %26
  store i1 false, ptr %3, align 1
  br label %46

32:                                               ; preds = %26
  br label %33

33:                                               ; preds = %32
  %34 = load ptr, ptr %5, align 8
  %35 = getelementptr inbounds nuw i8, ptr %34, i32 1
  store ptr %35, ptr %5, align 8
  %36 = load i8, ptr %34, align 1
  %37 = call signext i8 @lowerit(i8 noundef signext %36)
  %38 = sext i8 %37 to i32
  %39 = load ptr, ptr %4, align 8
  %40 = load i8, ptr %39, align 1
  %41 = call signext i8 @lowerit(i8 noundef signext %40)
  %42 = sext i8 %41 to i32
  %43 = icmp ne i32 %38, %42
  br i1 %43, label %26, label %44, !llvm.loop !49

44:                                               ; preds = %33
  br label %19, !llvm.loop !50

45:                                               ; preds = %19
  store i1 true, ptr %3, align 1
  br label %46

46:                                               ; preds = %45, %31, %15
  %47 = load i1, ptr %3, align 1
  ret i1 %47
}

; Function Attrs: nounwind uwtable
define internal zeroext i1 @ciequal(ptr noundef %0, ptr noundef %1) #0 {
  %3 = alloca i1, align 1
  %4 = alloca ptr, align 8
  %5 = alloca ptr, align 8
  store ptr %0, ptr %4, align 8
  store ptr %1, ptr %5, align 8
  br label %6

6:                                                ; preds = %24, %2
  %7 = load ptr, ptr %4, align 8
  %8 = load i8, ptr %7, align 1
  %9 = call signext i8 @lowerit(i8 noundef signext %8)
  %10 = sext i8 %9 to i32
  %11 = load ptr, ptr %5, align 8
  %12 = getelementptr inbounds nuw i8, ptr %11, i32 1
  store ptr %12, ptr %5, align 8
  %13 = load i8, ptr %11, align 1
  %14 = call signext i8 @lowerit(i8 noundef signext %13)
  %15 = sext i8 %14 to i32
  %16 = icmp eq i32 %10, %15
  br i1 %16, label %17, label %25

17:                                               ; preds = %6
  %18 = load ptr, ptr %4, align 8
  %19 = getelementptr inbounds nuw i8, ptr %18, i32 1
  store ptr %19, ptr %4, align 8
  %20 = load i8, ptr %18, align 1
  %21 = sext i8 %20 to i32
  %22 = icmp eq i32 %21, 0
  br i1 %22, label %23, label %24

23:                                               ; preds = %17
  store i1 true, ptr %3, align 1
  br label %26

24:                                               ; preds = %17
  br label %6, !llvm.loop !48

25:                                               ; preds = %6
  store i1 false, ptr %3, align 1
  br label %26

26:                                               ; preds = %25, %23
  %27 = load i1, ptr %3, align 1
  ret i1 %27
}

; Function Attrs: nounwind uwtable
define internal ptr @byword(ptr noundef %0, ptr noundef %1) #0 {
  %3 = alloca ptr, align 8
  %4 = alloca ptr, align 8
  %5 = alloca ptr, align 8
  %6 = alloca ptr, align 8
  %7 = alloca ptr, align 8
  %8 = alloca i32, align 4
  %9 = alloca i8, align 1
  store ptr %0, ptr %4, align 8
  store ptr %1, ptr %5, align 8
  call void @llvm.lifetime.start.p0(i64 8, ptr %6) #13
  call void @llvm.lifetime.start.p0(i64 8, ptr %7) #13
  %10 = load ptr, ptr %4, align 8
  %11 = icmp eq ptr %10, null
  br i1 %11, label %15, label %12

12:                                               ; preds = %2
  %13 = load ptr, ptr %5, align 8
  %14 = icmp eq ptr %13, null
  br i1 %14, label %15, label %16

15:                                               ; preds = %12, %2
  store ptr null, ptr %3, align 8
  store i32 1, ptr %8, align 4
  br label %117

16:                                               ; preds = %12
  %17 = load ptr, ptr %5, align 8
  %18 = icmp eq ptr %17, @lasts
  br i1 %18, label %19, label %42

19:                                               ; preds = %16
  %20 = load ptr, ptr %4, align 8
  %21 = call zeroext i1 @ciprefix(ptr noundef @.str.138, ptr noundef %20)
  br i1 %21, label %22, label %42

22:                                               ; preds = %19
  %23 = load ptr, ptr %4, align 8
  %24 = getelementptr inbounds i8, ptr %23, i64 4
  %25 = load i8, ptr %24, align 1
  %26 = sext i8 %25 to i32
  %27 = icmp ne i32 %26, 0
  br i1 %27, label %28, label %42

28:                                               ; preds = %22
  %29 = load ptr, ptr %4, align 8
  %30 = getelementptr inbounds i8, ptr %29, i64 4
  %31 = load i8, ptr %30, align 1
  %32 = sext i8 %31 to i32
  %33 = icmp eq i32 %32, 45
  br i1 %33, label %34, label %38

34:                                               ; preds = %28
  %35 = load ptr, ptr %4, align 8
  %36 = load ptr, ptr %4, align 8
  %37 = getelementptr inbounds i8, ptr %36, i64 5
  call void (ptr, ...) @warning(ptr noundef @.str.139, ptr noundef %35, ptr noundef %37)
  br label %41

38:                                               ; preds = %28
  %39 = load ptr, ptr %4, align 8
  %40 = getelementptr inbounds i8, ptr %39, i64 4
  store ptr %40, ptr %4, align 8
  store ptr @wday_names, ptr %5, align 8
  br label %41

41:                                               ; preds = %38, %34
  br label %42

42:                                               ; preds = %41, %22, %19, %16
  %43 = load ptr, ptr %5, align 8
  store ptr %43, ptr %7, align 8
  br label %44

44:                                               ; preds = %58, %42
  %45 = load ptr, ptr %7, align 8
  %46 = getelementptr inbounds nuw %struct.lookup, ptr %45, i32 0, i32 0
  %47 = load ptr, ptr %46, align 8
  %48 = icmp ne ptr %47, null
  br i1 %48, label %49, label %61

49:                                               ; preds = %44
  %50 = load ptr, ptr %4, align 8
  %51 = load ptr, ptr %7, align 8
  %52 = getelementptr inbounds nuw %struct.lookup, ptr %51, i32 0, i32 0
  %53 = load ptr, ptr %52, align 8
  %54 = call zeroext i1 @ciequal(ptr noundef %50, ptr noundef %53)
  br i1 %54, label %55, label %57

55:                                               ; preds = %49
  %56 = load ptr, ptr %7, align 8
  store ptr %56, ptr %3, align 8
  store i32 1, ptr %8, align 4
  br label %117

57:                                               ; preds = %49
  br label %58

58:                                               ; preds = %57
  %59 = load ptr, ptr %7, align 8
  %60 = getelementptr inbounds nuw %struct.lookup, ptr %59, i32 1
  store ptr %60, ptr %7, align 8
  br label %44, !llvm.loop !39

61:                                               ; preds = %44
  store ptr null, ptr %6, align 8
  %62 = load ptr, ptr %5, align 8
  store ptr %62, ptr %7, align 8
  br label %63

63:                                               ; preds = %82, %61
  %64 = load ptr, ptr %7, align 8
  %65 = getelementptr inbounds nuw %struct.lookup, ptr %64, i32 0, i32 0
  %66 = load ptr, ptr %65, align 8
  %67 = icmp ne ptr %66, null
  br i1 %67, label %68, label %85

68:                                               ; preds = %63
  %69 = load ptr, ptr %4, align 8
  %70 = load ptr, ptr %7, align 8
  %71 = getelementptr inbounds nuw %struct.lookup, ptr %70, i32 0, i32 0
  %72 = load ptr, ptr %71, align 8
  %73 = call zeroext i1 @ciprefix(ptr noundef %69, ptr noundef %72)
  br i1 %73, label %74, label %81

74:                                               ; preds = %68
  %75 = load ptr, ptr %6, align 8
  %76 = icmp eq ptr %75, null
  br i1 %76, label %77, label %79

77:                                               ; preds = %74
  %78 = load ptr, ptr %7, align 8
  store ptr %78, ptr %6, align 8
  br label %80

79:                                               ; preds = %74
  store ptr null, ptr %3, align 8
  store i32 1, ptr %8, align 4
  br label %117

80:                                               ; preds = %77
  br label %81

81:                                               ; preds = %80, %68
  br label %82

82:                                               ; preds = %81
  %83 = load ptr, ptr %7, align 8
  %84 = getelementptr inbounds nuw %struct.lookup, ptr %83, i32 1
  store ptr %84, ptr %7, align 8
  br label %63, !llvm.loop !40

85:                                               ; preds = %63
  %86 = load ptr, ptr %6, align 8
  %87 = icmp ne ptr %86, null
  br i1 %87, label %88, label %115

88:                                               ; preds = %85
  %89 = load i8, ptr @noise, align 1, !range !6, !noundef !7
  %90 = trunc i8 %89 to i1
  br i1 %90, label %91, label %115

91:                                               ; preds = %88
  call void @llvm.lifetime.start.p0(i64 1, ptr %9) #13
  store i8 0, ptr %9, align 1
  %92 = load ptr, ptr %5, align 8
  store ptr %92, ptr %7, align 8
  br label %93

93:                                               ; preds = %111, %91
  %94 = load ptr, ptr %7, align 8
  %95 = getelementptr inbounds nuw %struct.lookup, ptr %94, i32 0, i32 0
  %96 = load ptr, ptr %95, align 8
  %97 = icmp ne ptr %96, null
  br i1 %97, label %98, label %114

98:                                               ; preds = %93
  %99 = load ptr, ptr %4, align 8
  %100 = load ptr, ptr %7, align 8
  %101 = getelementptr inbounds nuw %struct.lookup, ptr %100, i32 0, i32 0
  %102 = load ptr, ptr %101, align 8
  %103 = call zeroext i1 @itsabbr(ptr noundef %99, ptr noundef %102)
  br i1 %103, label %104, label %110

104:                                              ; preds = %98
  %105 = load i8, ptr %9, align 1, !range !6, !noundef !7
  %106 = trunc i8 %105 to i1
  br i1 %106, label %107, label %109

107:                                              ; preds = %104
  %108 = load ptr, ptr %4, align 8
  call void (ptr, ...) @warning(ptr noundef @.str.140, ptr noundef %108)
  br label %114

109:                                              ; preds = %104
  store i8 1, ptr %9, align 1
  br label %110

110:                                              ; preds = %109, %98
  br label %111

111:                                              ; preds = %110
  %112 = load ptr, ptr %7, align 8
  %113 = getelementptr inbounds nuw %struct.lookup, ptr %112, i32 1
  store ptr %113, ptr %7, align 8
  br label %93, !llvm.loop !41

114:                                              ; preds = %107, %93
  call void @llvm.lifetime.end.p0(i64 1, ptr %9) #13
  br label %115

115:                                              ; preds = %114, %88, %85
  %116 = load ptr, ptr %6, align 8
  store ptr %116, ptr %3, align 8
  store i32 1, ptr %8, align 4
  br label %117

117:                                              ; preds = %115, %79, %55, %15
  call void @llvm.lifetime.end.p0(i64 8, ptr %7) #13
  call void @llvm.lifetime.end.p0(i64 8, ptr %6) #13
  %118 = load ptr, ptr %3, align 8
  ret ptr %118
}