; Function Attrs: nounwind uwtable
define internal fastcc ptr @byword(ptr noundef %0, ptr noundef readonly captures(address, ret: address, provenance) %1) unnamed_addr #0 {
  %3 = icmp eq ptr %0, null
  %4 = icmp eq ptr %1, null
  %or.cond = or i1 %3, %4
  br i1 %or.cond, label %.loopexit53, label %5

5:                                                ; preds = %2
  %6 = icmp eq ptr %1, @lasts
  br i1 %6, label %7, label %15

7:                                                ; preds = %5
  %8 = tail call fastcc zeroext i1 @ciprefix(ptr noundef nonnull @.str.138, ptr noundef %0)
  br i1 %8, label %9, label %15

9:                                                ; preds = %7
  %10 = getelementptr inbounds nuw i8, ptr %0, i64 4
  %11 = load i8, ptr %10, align 1
  switch i8 %11, label %14 [
    i8 0, label %15
    i8 45, label %12
  ]

12:                                               ; preds = %9
  %13 = getelementptr inbounds nuw i8, ptr %0, i64 5
  tail call void (ptr, ...) @warning(ptr noundef nonnull @.str.139, ptr noundef nonnull %0, ptr noundef nonnull %13)
  br label %15

14:                                               ; preds = %9
  br label %15

15:                                               ; preds = %9, %12, %14, %7, %5
  %.037 = phi ptr [ %0, %12 ], [ %10, %14 ], [ %0, %9 ], [ %0, %7 ], [ %0, %5 ]
  %.036 = phi ptr [ @lasts, %12 ], [ @wday_names, %14 ], [ @lasts, %9 ], [ @lasts, %7 ], [ %1, %5 ]
  %16 = load ptr, ptr %.036, align 8
  %.not4561 = icmp eq ptr %16, null
  br i1 %.not4561, label %.loopexit53, label %.preheader56

.preheader56:                                     ; preds = %15, %26
  %17 = phi ptr [ %28, %26 ], [ %16, %15 ]
  %.03262 = phi ptr [ %27, %26 ], [ %.036, %15 ]
  br label %lowerit.exit.i

lowerit.exit.i:                                   ; preds = %.preheader56, %lowerit.exit.i
  %.04.i = phi ptr [ %24, %lowerit.exit.i ], [ %.037, %.preheader56 ]
  %.0.i = phi ptr [ %23, %lowerit.exit.i ], [ %17, %.preheader56 ]
  %18 = load i8, ptr %.04.i, align 1
  %switch.tableidx = add i8 %18, -65
  %19 = icmp ult i8 %switch.tableidx, 26
  %switch.offset = add i8 %18, 32
  %spec.select = select i1 %19, i8 %switch.offset, i8 %18
  %20 = load i8, ptr %.0.i, align 1
  %switch.tableidx90 = add i8 %20, -65
  %21 = icmp ult i8 %switch.tableidx90, 26
  %switch.offset91 = add i8 %20, 32
  %spec.select92 = select i1 %21, i8 %switch.offset91, i8 %20
  %22 = icmp eq i8 %spec.select, %spec.select92
  %23 = getelementptr inbounds nuw i8, ptr %.0.i, i64 1
  %24 = getelementptr inbounds nuw i8, ptr %.04.i, i64 1
  %25 = icmp ne i8 %18, 0
  %or.cond.not.i = and i1 %25, %22
  br i1 %or.cond.not.i, label %lowerit.exit.i, label %ciequal.exit, !llvm.loop !74

ciequal.exit:                                     ; preds = %lowerit.exit.i
  br i1 %22, label %.loopexit53, label %26

26:                                               ; preds = %ciequal.exit
  %27 = getelementptr inbounds nuw i8, ptr %.03262, i64 16
  %28 = load ptr, ptr %27, align 8
  %.not45 = icmp eq ptr %28, null
  br i1 %.not45, label %.lr.ph, label %.preheader56, !llvm.loop !75

.lr.ph:                                           ; preds = %26, %33
  %29 = phi ptr [ %35, %33 ], [ %16, %26 ]
  %.13365 = phi ptr [ %34, %33 ], [ %.036, %26 ]
  %.03464 = phi ptr [ %.135, %33 ], [ null, %26 ]
  %30 = tail call fastcc zeroext i1 @ciprefix(ptr noundef %.037, ptr noundef %29)
  br i1 %30, label %31, label %33

31:                                               ; preds = %.lr.ph
  %32 = icmp eq ptr %.03464, null
  br i1 %32, label %33, label %.loopexit53

33:                                               ; preds = %31, %.lr.ph
  %.135 = phi ptr [ %.03464, %.lr.ph ], [ %.13365, %31 ]
  %34 = getelementptr inbounds nuw i8, ptr %.13365, i64 16
  %35 = load ptr, ptr %34, align 8
  %.not46 = icmp eq ptr %35, null
  br i1 %.not46, label %._crit_edge, label %.lr.ph, !llvm.loop !76

._crit_edge:                                      ; preds = %33
  %.not47 = icmp eq ptr %.135, null
  br i1 %.not47, label %.loopexit53, label %36

36:                                               ; preds = %._crit_edge
  %.b48 = load i1, ptr @noise, align 1
  br i1 %.b48, label %.lr.ph69, label %.loopexit53

.lr.ph69:                                         ; preds = %36
  %37 = load i8, ptr %.037, align 1
  %38 = getelementptr inbounds nuw i8, ptr %.037, i64 1
  %switch.tableidx84 = add i8 %37, -65
  %39 = icmp ult i8 %switch.tableidx84, 26
  %switch.offset85 = add i8 %37, 32
  %spec.select86 = select i1 %39, i8 %switch.offset85, i8 %37
  br label %lowerit.exit.i50

lowerit.exit.i50:                                 ; preds = %.lr.ph69, %itsabbr.exit
  %40 = phi ptr [ %16, %.lr.ph69 ], [ %59, %itsabbr.exit ]
  %.068 = phi i1 [ false, %.lr.ph69 ], [ %.1, %itsabbr.exit ]
  %.267 = phi ptr [ %.036, %.lr.ph69 ], [ %58, %itsabbr.exit ]
  %41 = load i8, ptr %40, align 1
  %switch.tableidx93 = add i8 %41, -65
  %42 = icmp ult i8 %switch.tableidx93, 26
  %switch.offset94 = add i8 %41, 32
  %spec.select95 = select i1 %42, i8 %switch.offset94, i8 %41
  %.not.i = icmp eq i8 %spec.select86, %spec.select95
  br i1 %.not.i, label %43, label %itsabbr.exit

43:                                               ; preds = %lowerit.exit.i50
  %44 = load i8, ptr %38, align 1
  %.not1019.i = icmp eq i8 %44, 0
  br i1 %.not1019.i, label %.loopexit, label %.preheader.preheader.i

.preheader.preheader.i:                           ; preds = %43
  %45 = getelementptr inbounds nuw i8, ptr %40, i64 1
  br label %.preheader.i

.preheader.i:                                     ; preds = %54, %.preheader.preheader.i
  %46 = phi i8 [ %56, %54 ], [ %44, %.preheader.preheader.i ]
  %47 = phi ptr [ %55, %54 ], [ %38, %.preheader.preheader.i ]
  %.020.i = phi ptr [ %52, %54 ], [ %45, %.preheader.preheader.i ]
  %switch.tableidx96 = add i8 %46, -65
  %48 = icmp ult i8 %switch.tableidx96, 26
  %switch.offset97 = add i8 %46, 32
  %spec.select98 = select i1 %48, i8 %switch.offset97, i8 %46
  br label %49

49:                                               ; preds = %lowerit.exit15.i, %.preheader.i
  %.1.i = phi ptr [ %52, %lowerit.exit15.i ], [ %.020.i, %.preheader.i ]
  %50 = load i8, ptr %.1.i, align 1
  %51 = icmp eq i8 %50, 0
  br i1 %51, label %itsabbr.exit, label %lowerit.exit15.i

lowerit.exit15.i:                                 ; preds = %49
  %52 = getelementptr inbounds nuw i8, ptr %.1.i, i64 1
  %switch.tableidx87 = add i8 %50, -65
  %53 = icmp ult i8 %switch.tableidx87, 26
  %switch.offset88 = add i8 %50, 32
  %spec.select89 = select i1 %53, i8 %switch.offset88, i8 %50
  %.not11.i = icmp eq i8 %spec.select89, %spec.select98
  br i1 %.not11.i, label %54, label %49, !llvm.loop !77

54:                                               ; preds = %lowerit.exit15.i
  %55 = getelementptr inbounds nuw i8, ptr %47, i64 1
  %56 = load i8, ptr %55, align 1
  %.not10.i = icmp eq i8 %56, 0
  br i1 %.not10.i, label %.loopexit, label %.preheader.i, !llvm.loop !78

.loopexit:                                        ; preds = %54, %43
  br i1 %.068, label %57, label %itsabbr.exit

57:                                               ; preds = %.loopexit
  tail call void (ptr, ...) @warning(ptr noundef nonnull @.str.140, ptr noundef nonnull %.037)
  br label %.loopexit53

itsabbr.exit:                                     ; preds = %49, %lowerit.exit.i50, %.loopexit
  %.1 = phi i1 [ true, %.loopexit ], [ %.068, %lowerit.exit.i50 ], [ %.068, %49 ]
  %58 = getelementptr inbounds nuw i8, ptr %.267, i64 16
  %59 = load ptr, ptr %58, align 8
  %.not49 = icmp eq ptr %59, null
  br i1 %.not49, label %.loopexit53, label %lowerit.exit.i50, !llvm.loop !79

.loopexit53:                                      ; preds = %ciequal.exit, %31, %itsabbr.exit, %36, %15, %._crit_edge, %57, %2
  %.038 = phi ptr [ null, %2 ], [ %.135, %57 ], [ %.135, %36 ], [ null, %._crit_edge ], [ null, %15 ], [ %.135, %itsabbr.exit ], [ null, %31 ], [ %.03262, %ciequal.exit ]
  ret ptr %.038
}